; Function Attrs: mustprogress uwtable
define hidden noundef i32 @_ZN8intblast6solver17check_propagationEN3sat7literalERK7svectorIS2_jERKS3_ISt4pairIPN3euf5enodeESA_EjE(ptr noundef nonnull align 8 dereferenceable(420) %0, i32 %1, ptr noundef nonnull readonly align 8 captures(none) dereferenceable(8) %2, ptr noundef nonnull readonly align 8 captures(none) dereferenceable(8) %3) local_unnamed_addr #3 align 2 personality ptr @__gxx_personality_v0 {
  %5 = alloca %class.svector.59, align 8
  call void @llvm.lifetime.start.p0(i64 8, ptr nonnull %5) #26
  store ptr null, ptr %5, align 8, !tbaa !487
  br label %6

6:                                                ; preds = %_ZN6vectorIN3sat7literalELb0EjE9push_backERKS1_.exit.i, %4
  %7 = phi ptr [ %25, %_ZN6vectorIN3sat7literalELb0EjE9push_backERKS1_.exit.i ], [ null, %4 ]
  %indvars.iv.i = phi i64 [ %indvars.iv.next.i, %_ZN6vectorIN3sat7literalELb0EjE9push_backERKS1_.exit.i ], [ 0, %4 ]
  %8 = load ptr, ptr %2, align 8, !tbaa !487
  %9 = icmp eq ptr %8, null
  br i1 %9, label %_ZNK6vectorIN3sat7literalELb0EjE4sizeEv.exit.i, label %10

10:                                               ; preds = %6
  %11 = getelementptr inbounds i8, ptr %8, i64 -4
  %12 = load i32, ptr %11, align 4, !tbaa !21
  %13 = zext i32 %12 to i64
  br label %_ZNK6vectorIN3sat7literalELb0EjE4sizeEv.exit.i

_ZNK6vectorIN3sat7literalELb0EjE4sizeEv.exit.i:   ; preds = %10, %6
  %.0.i.i = phi i64 [ %13, %10 ], [ 0, %6 ]
  %14 = icmp samesign ult i64 %indvars.iv.i, %.0.i.i
  %15 = icmp eq ptr %7, null
  br i1 %14, label %16, label %_ZN6vectorIN3sat7literalELb0EjE6appendERKS2_.exit

16:                                               ; preds = %_ZNK6vectorIN3sat7literalELb0EjE4sizeEv.exit.i
  %17 = getelementptr inbounds nuw %"class.sat::literal", ptr %8, i64 %indvars.iv.i
  br i1 %15, label %24, label %18

18:                                               ; preds = %16
  %19 = getelementptr inbounds i8, ptr %7, i64 -4
  %20 = load i32, ptr %19, align 4, !tbaa !21
  %21 = getelementptr inbounds i8, ptr %7, i64 -8
  %22 = load i32, ptr %21, align 4, !tbaa !21
  %23 = icmp eq i32 %20, %22
  br i1 %23, label %24, label %_ZN6vectorIN3sat7literalELb0EjE9push_backERKS1_.exit.i

24:                                               ; preds = %18, %16
  invoke void @_ZN6vectorIN3sat7literalELb0EjE13expand_vectorEv(ptr noundef nonnull align 8 dereferenceable(8) %5)
          to label %.noexc unwind label %.loopexit

.noexc:                                           ; preds = %24
  %.pre.i.i = load ptr, ptr %5, align 8, !tbaa !487
  %.phi.trans.insert.i.i = getelementptr inbounds i8, ptr %.pre.i.i, i64 -4
  %.pre2.i.i = load i32, ptr %.phi.trans.insert.i.i, align 4, !tbaa !21
  br label %_ZN6vectorIN3sat7literalELb0EjE9push_backERKS1_.exit.i

_ZN6vectorIN3sat7literalELb0EjE9push_backERKS1_.exit.i: ; preds = %.noexc, %18
  %25 = phi ptr [ %.pre.i.i, %.noexc ], [ %7, %18 ]
  %26 = phi i32 [ %.pre2.i.i, %.noexc ], [ %20, %18 ]
  %27 = getelementptr inbounds i8, ptr %25, i64 -4
  %28 = zext i32 %26 to i64
  %29 = getelementptr inbounds nuw %"class.sat::literal", ptr %25, i64 %28
  %30 = load i32, ptr %17, align 4, !tbaa !21
  store i32 %30, ptr %29, align 4, !tbaa !21
  %31 = add i32 %26, 1
  store i32 %31, ptr %27, align 4, !tbaa !21
  %indvars.iv.next.i = add nuw nsw i64 %indvars.iv.i, 1
  br label %6, !llvm.loop !508

_ZN6vectorIN3sat7literalELb0EjE6appendERKS2_.exit: ; preds = %_ZNK6vectorIN3sat7literalELb0EjE4sizeEv.exit.i
  %32 = xor i32 %1, 1
  br i1 %15, label %39, label %33

33:                                               ; preds = %_ZN6vectorIN3sat7literalELb0EjE6appendERKS2_.exit
  %34 = getelementptr inbounds i8, ptr %7, i64 -4
  %35 = load i32, ptr %34, align 4, !tbaa !21
  %36 = getelementptr inbounds i8, ptr %7, i64 -8
  %37 = load i32, ptr %36, align 4, !tbaa !21
  %38 = icmp eq i32 %35, %37
  br i1 %38, label %39, label %40

39:                                               ; preds = %33, %_ZN6vectorIN3sat7literalELb0EjE6appendERKS2_.exit
  invoke void @_ZN6vectorIN3sat7literalELb0EjE13expand_vectorEv(ptr noundef nonnull align 8 dereferenceable(8) %5)
          to label %.noexc7 unwind label %55

.noexc7:                                          ; preds = %39
  %.pre.i = load ptr, ptr %5, align 8, !tbaa !487
  %.phi.trans.insert.i = getelementptr inbounds i8, ptr %.pre.i, i64 -4
  %.pre2.i = load i32, ptr %.phi.trans.insert.i, align 4, !tbaa !21
  br label %40

40:                                               ; preds = %.noexc7, %33
  %41 = phi i32 [ %.pre2.i, %.noexc7 ], [ %35, %33 ]
  %42 = phi ptr [ %.pre.i, %.noexc7 ], [ %7, %33 ]
  %43 = getelementptr inbounds i8, ptr %42, i64 -4
  %44 = zext i32 %41 to i64
  %45 = getelementptr inbounds nuw %"class.sat::literal", ptr %42, i64 %44
  store i32 %32, ptr %45, align 4, !tbaa !21
  %46 = add i32 %41, 1
  store i32 %46, ptr %43, align 4, !tbaa !21
  %47 = invoke noundef i32 @_ZN8intblast6solver10check_coreERK7svectorIN3sat7literalEjERKS1_ISt4pairIPN3euf5enodeESA_EjE(ptr noundef nonnull align 8 dereferenceable(420) %0, ptr noundef nonnull align 8 dereferenceable(8) %5, ptr noundef nonnull align 8 dereferenceable(8) %3)
          to label %48 unwind label %.loopexit.split-lp

48:                                               ; preds = %40
  %49 = load ptr, ptr %5, align 8, !tbaa !487
  %.not.i.i = icmp eq ptr %49, null
  br i1 %.not.i.i, label %_ZN6vectorIN3sat7literalELb0EjED2Ev.exit, label %50

50:                                               ; preds = %48
  %51 = getelementptr inbounds i8, ptr %49, i64 -8
  invoke void @_ZN6memory10deallocateEPv(ptr noundef nonnull %51)
          to label %_ZN6vectorIN3sat7literalELb0EjED2Ev.exit unwind label %52

52:                                               ; preds = %50
  %53 = landingpad { ptr, i32 }
          catch ptr null
  %54 = extractvalue { ptr, i32 } %53, 0
  call void @__clang_call_terminate(ptr %54) #27
  unreachable

_ZN6vectorIN3sat7literalELb0EjED2Ev.exit:         ; preds = %48, %50
  call void @llvm.lifetime.end.p0(i64 8, ptr nonnull %5) #26
  ret i32 %47

.loopexit:                                        ; preds = %24
  %lpad.loopexit = landingpad { ptr, i32 }
          cleanup
  br label %57

.loopexit.split-lp:                               ; preds = %40
  %lpad.loopexit.split-lp = landingpad { ptr, i32 }
          cleanup
  br label %57

55:                                               ; preds = %39
  %56 = landingpad { ptr, i32 }
          cleanup
  br label %57

57:                                               ; preds = %.loopexit, %.loopexit.split-lp, %55
  %.pn = phi { ptr, i32 } [ %56, %55 ], [ %lpad.loopexit, %.loopexit ], [ %lpad.loopexit.split-lp, %.loopexit.split-lp ]
  call void @_ZN6vectorIN3sat7literalELb0EjED2Ev(ptr noundef nonnull align 8 dereferenceable(8) %5) #26
  call void @llvm.lifetime.end.p0(i64 8, ptr nonnull %5) #26
  resume { ptr, i32 } %.pn
}